Certificate:
    Data:
        Version: 3 (0x2)
        Serial Number: 33 (0x21)
    Signature Algorithm: sha512WithRSAEncryption
        Issuer: C=US, ST=Maryland, L=Linthicum, O=Secure Innovations LLC, CN=Secure Innovations LLC Root CA/emailAddress=dsmith@secure-innovations.net
        Validity
            Not Before: Dec 17 11:44:20 2015 GMT
            Not After : Jan 24 11:44:20 2021 GMT
        Subject: C=US, ST=Maryland, O=Secure Innovations LLC, CN=mist-interface.silab.net/emailAddress=rhache@secure-innovations.net
        Subject Public Key Info:
            Public Key Algorithm: rsaEncryption
                Public-Key: (2048 bit)
                Modulus:
                    00:b9:23:48:16:69:ce:85:fe:1b:aa:40:e4:2f:f8:
                    24:56:d6:3b:e5:1b:e6:b6:5d:eb:26:d9:ce:21:1a:
                    3d:04:0e:e7:bc:20:55:ee:7c:d1:b3:f8:fe:d5:04:
                    bc:d7:62:9d:07:de:6d:a8:e7:98:db:ff:67:42:9e:
                    cd:e6:9d:2e:a8:ed:31:5f:06:45:3f:54:11:93:e9:
                    39:c6:f0:74:9c:ae:b6:22:2b:33:15:de:4c:88:b6:
                    6f:90:c2:f2:b9:2f:e0:2f:0f:7c:fe:ec:8f:d1:38:
                    72:c3:b8:3e:84:9d:72:1a:16:c8:f9:cd:d0:a8:b9:
                    55:35:e0:7c:a1:87:65:89:64:51:1f:2d:0a:34:8b:
                    a7:34:df:c0:36:e5:e4:70:3e:18:21:eb:9f:6e:65:
                    32:76:37:5b:0d:0f:3b:86:40:f8:dd:b1:8d:9a:25:
                    50:0d:19:90:ad:1e:8f:27:8d:33:dd:7d:f5:6b:bf:
                    9e:d5:81:5e:f0:05:42:b5:ee:57:97:79:2d:76:fd:
                    09:78:a6:0b:bc:c5:7e:37:3b:56:20:4d:94:a5:97:
                    82:43:96:01:3d:1c:07:9d:c1:9d:d7:f3:4a:54:60:
                    a5:a3:60:43:cb:17:f8:a0:2d:a1:eb:fe:7e:3b:e2:
                    45:c7:42:5c:b4:d9:63:7b:30:08:4d:94:6b:26:ba:
                    a6:93
                Exponent: 65537 (0x10001)
        X509v3 extensions:
            X509v3 Basic Constraints: 
                CA:FALSE
            X509v3 Subject Key Identifier: 
                1F:7B:44:5F:2A:46:73:7F:4E:11:91:BE:E2:5B:95:B6:2F:8C:06:A4
            X509v3 Authority Key Identifier: 
                keyid:A6:72:1F:E9:13:83:90:0A:93:FD:65:2D:96:65:4E:08:8F:59:12:A9
                DirName:/C=US/ST=Maryland/L=Linthicum/O=Secure Innovations LLC/CN=Secure Innovations LLC Root CA/emailAddress=dsmith@secure-innovations.net
                serial:8F:8D:F3:58:CD:44:3D:67

            Netscape CA Revocation Url: 
                http://10.11.1.81:8081/revocation.pem
    Signature Algorithm: sha512WithRSAEncryption
         8b:5e:e6:a6:6c:59:21:19:83:fd:bd:23:e6:e2:1d:3a:c1:ed:
         36:77:df:a8:07:74:21:d1:2c:91:e9:81:80:97:05:3b:0b:c4:
         cf:84:a1:1d:e6:2d:a5:4e:c9:ae:8c:04:a3:15:16:32:3a:c3:
         a3:d2:f9:2b:b3:fb:9d:80:d3:ae:bf:34:21:30:d5:99:e3:68:
         74:ab:41:0a:70:1e:1f:6b:a9:2d:f9:5d:47:fc:8a:5c:14:34:
         fe:ca:e2:96:da:06:6a:e7:f8:eb:2d:53:fe:e8:c0:0d:62:23:
         30:ba:87:15:58:53:03:e0:ba:c1:82:a8:97:d4:b7:1c:36:09:
         e1:84:3b:c1:37:6a:76:9b:c2:3b:39:a3:13:bb:02:cf:4b:87:
         d0:af:04:fb:02:0b:4a:bc:cd:16:af:03:05:72:6a:ad:98:fd:
         2c:21:37:4b:7b:20:86:7a:85:08:d6:87:bb:7c:28:f5:0f:ee:
         34:c7:2d:8b:fd:88:e3:fb:62:c1:e4:37:73:78:f6:01:58:dc:
         b0:c1:77:64:7d:4c:e6:56:20:90:1c:99:71:0a:f5:40:e2:0a:
         80:06:c8:3c:46:0d:a2:31:3f:11:8c:9d:43:d1:4d:70:17:0f:
         c2:8d:66:b8:fe:cf:49:96:76:e8:44:99:16:ae:a4:10:6d:71:
         e8:3e:7a:01
-----BEGIN CERTIFICATE-----
MIIFBTCCA+2gAwIBAgIBITANBgkqhkiG9w0BAQ0FADCBrDELMAkGA1UEBhMCVVMx
ETAPBgNVBAgTCE1hcnlsYW5kMRIwEAYDVQQHEwlMaW50aGljdW0xHzAdBgNVBAoT
FlNlY3VyZSBJbm5vdmF0aW9ucyBMTEMxJzAlBgNVBAMTHlNlY3VyZSBJbm5vdmF0
aW9ucyBMTEMgUm9vdCBDQTEsMCoGCSqGSIb3DQEJARYdZHNtaXRoQHNlY3VyZS1p
bm5vdmF0aW9ucy5uZXQwHhcNMTUxMjE3MTE0NDIwWhcNMjEwMTI0MTE0NDIwWjCB
kjELMAkGA1UEBhMCVVMxETAPBgNVBAgTCE1hcnlsYW5kMR8wHQYDVQQKExZTZWN1
cmUgSW5ub3ZhdGlvbnMgTExDMSEwHwYDVQQDExhtaXN0LWludGVyZmFjZS5zaWxh
Yi5uZXQxLDAqBgkqhkiG9w0BCQEWHXJoYWNoZUBzZWN1cmUtaW5ub3ZhdGlvbnMu
bmV0MIIBIjANBgkqhkiG9w0BAQEFAAOCAQ8AMIIBCgKCAQEAuSNIFmnOhf4bqkDk
L/gkVtY75Rvmtl3rJtnOIRo9BA7nvCBV7nzRs/j+1QS812KdB95tqOeY2/9nQp7N
5p0uqO0xXwZFP1QRk+k5xvB0nK62IiszFd5MiLZvkMLyuS/gLw98/uyP0Thyw7g+
hJ1yGhbI+c3QqLlVNeB8oYdliWRRHy0KNIunNN/ANuXkcD4YIeufbmUydjdbDQ87
hkD43bGNmiVQDRmQrR6PJ40z3X31a7+e1YFe8AVCte5Xl3ktdv0JeKYLvMV+NztW
IE2UpZeCQ5YBPRwHncGd1/NKVGClo2BDyxf4oC2h6/5+O+JFx0JctNljezAITZRr
JrqmkwIDAQABo4IBSDCCAUQwCQYDVR0TBAIwADAdBgNVHQ4EFgQUH3tEXypGc39O
EZG+4luVti+MBqQwgeEGA1UdIwSB2TCB1oAUpnIf6RODkAqT/WUtlmVOCI9ZEqmh
gbKkga8wgawxCzAJBgNVBAYTAlVTMREwDwYDVQQIEwhNYXJ5bGFuZDESMBAGA1UE
BxMJTGludGhpY3VtMR8wHQYDVQQKExZTZWN1cmUgSW5ub3ZhdGlvbnMgTExDMScw
JQYDVQQDEx5TZWN1cmUgSW5ub3ZhdGlvbnMgTExDIFJvb3QgQ0ExLDAqBgkqhkiG
9w0BCQEWHWRzbWl0aEBzZWN1cmUtaW5ub3ZhdGlvbnMubmV0ggkAj43zWM1EPWcw
NAYJYIZIAYb4QgEEBCcWJWh0dHA6Ly8xMC4xMS4xLjgxOjgwODEvcmV2b2NhdGlv
bi5wZW0wDQYJKoZIhvcNAQENBQADggEBAIte5qZsWSEZg/29I+biHTrB7TZ336gH
dCHRLJHpgYCXBTsLxM+EoR3mLaVOya6MBKMVFjI6w6PS+Suz+52A066/NCEw1Znj
aHSrQQpwHh9rqS35XUf8ilwUNP7K4pbaBmrn+OstU/7owA1iIzC6hxVYUwPgusGC
qJfUtxw2CeGEO8E3anabwjs5oxO7As9Lh9CvBPsCC0q8zRavAwVyaq2Y/SwhN0t7
IIZ6hQjWh7t8KPUP7jTHLYv9iOP7YsHkN3N49gFY3LDBd2R9TOZWIJAcmXEK9UDi
CoAGyDxGDaIxPxGMnUPRTXAXD8KNZrj+z0mWduhEmRaupBBtceg+egE=
-----END CERTIFICATE-----
